Certificate:
    Data:
        Version: 3 (0x2)
        Serial Number:
            fa:74:02:11:33:25:80:76:2b:ed:52:65:52:cd:bf:cd
        Signature Algorithm: sha256WithRSAEncryption
        Issuer: CN=voight.org CA
        Validity
            Not Before: Oct 10 20:27:28 2020 GMT
            Not After : Jan 13 20:27:28 2023 GMT
        Subject: C=US, ST=Virginia, L=Arlington, O=Jeffrey Voight, voight.org, OU=Voight Household, CN=*.voight.org/emailAddress=jeff@voight.org
        Subject Public Key Info:
            Public Key Algorithm: rsaEncryption
                RSA Public-Key: (2048 bit)
                Modulus:
                    00:e1:63:84:aa:02:c6:e5:b9:1a:fb:c9:d0:fd:cd:
                    43:2e:b0:eb:f3:84:2c:54:c9:88:fb:7d:b0:82:a5:
                    ff:dd:e7:f3:a3:33:7b:41:7b:e4:90:ee:c2:00:96:
                    5e:38:da:cc:bf:46:bd:4a:51:1a:f6:c9:d8:d2:15:
                    8c:2f:a4:5c:f3:3a:73:78:23:b6:ce:10:1d:40:fd:
                    33:da:d2:ca:69:86:56:55:68:79:9f:74:d8:a5:40:
                    f4:ad:1b:05:30:ec:cd:69:e2:14:fe:d5:e3:93:4e:
                    a3:2b:bc:53:eb:3c:ae:bd:58:9e:c9:fe:ec:3b:fe:
                    96:63:3c:07:b4:99:b9:f3:54:e7:04:e6:4d:57:dc:
                    04:ee:c1:a7:59:35:b5:35:62:94:72:05:18:4d:c3:
                    73:20:c0:d7:0b:35:e6:71:3a:ca:14:c1:c0:70:9c:
                    82:69:5a:12:3c:05:0d:7d:1c:4f:78:1e:f0:c7:75:
                    4e:86:37:b7:32:fe:c5:4b:d9:ac:8f:20:c3:57:f6:
                    49:e0:d5:b8:82:11:e0:f9:a4:19:48:cf:9e:53:88:
                    9e:2f:ec:a9:e9:b8:39:45:a1:04:10:4f:d7:fd:d3:
                    22:d6:5a:c2:19:c0:ce:8a:93:b7:7b:9f:f6:c9:8d:
                    ee:14:db:ac:dc:65:79:91:92:dd:de:80:d9:e9:92:
                    96:23
                Exponent: 65537 (0x10001)
        X509v3 extensions:
            X509v3 Basic Constraints: 
                CA:FALSE
            X509v3 Subject Key Identifier: 
                BF:4D:12:2F:BF:D3:13:9F:30:CF:93:8F:9F:7E:25:44:EB:A2:9A:9F
            X509v3 Authority Key Identifier: 
                keyid:C8:56:58:23:92:E9:3A:B8:50:66:A9:34:4C:28:C8:18:AA:6B:3D:91
                DirName:/CN=voight.org CA
                serial:27:D8:E0:D2:CF:57:F8:1E:38:1F:21:00:0E:8E:24:7E:D8:26:4D:00

            X509v3 Extended Key Usage: 
                TLS Web Server Authentication
            X509v3 Key Usage: 
                Digital Signature, Key Encipherment
            X509v3 Subject Alternative Name: 
                DNS:*.voight.org, email:jeff@voight.org
    Signature Algorithm: sha256WithRSAEncryption
         0d:36:f6:fa:61:39:9c:a1:15:dc:f4:24:9f:cf:99:4f:a3:e4:
         c6:41:ee:5f:05:46:0e:5f:16:3c:34:2b:d8:8e:0b:06:e1:c5:
         67:a8:96:4e:13:fa:fb:d4:98:ba:00:9f:ad:c3:92:c1:8a:96:
         38:8b:74:3c:f6:2c:f9:1e:06:b1:12:f5:22:19:92:fb:c9:67:
         31:09:55:0d:da:2c:5a:62:37:a1:35:cd:8e:e5:55:8f:86:65:
         03:11:a2:07:e6:52:5a:3e:a2:1e:c0:8b:f1:c7:2b:86:93:bf:
         75:a7:fa:90:71:06:f8:f2:f9:92:08:57:38:15:06:45:43:32:
         69:1f:1e:ae:1c:12:eb:cd:d4:f5:5f:d3:15:a5:33:ae:34:25:
         09:6c:36:a3:71:f7:bd:4a:5b:d6:cd:5b:f6:bc:45:cc:36:7b:
         b8:ba:96:08:2c:2b:82:8c:66:cd:6b:8a:6b:cc:b9:53:12:a3:
         3f:83:b1:c8:37:79:91:2c:ba:15:b1:66:c3:14:f8:d2:78:b9:
         b5:0e:49:3c:16:34:ea:7b:f4:72:4f:6d:89:3e:0e:2b:ce:c5:
         12:ec:12:59:6f:12:10:7c:e0:d0:3d:4d:e2:c1:39:ac:fc:cc:
         3e:b1:dc:ad:7a:7d:41:0d:2e:db:a0:14:e1:67:1a:75:76:6d:
         b8:1c:0a:25
-----BEGIN CERTIFICATE-----
MIIEHjCCAwagAwIBAgIRAPp0AhEzJYB2K+1SZVLNv80wDQYJKoZIhvcNAQELBQAw
GDEWMBQGA1UEAwwNdm9pZ2h0Lm9yZyBDQTAeFw0yMDEwMTAyMDI3MjhaFw0yMzAx
MTMyMDI3MjhaMIGrMQswCQYDVQQGEwJVUzERMA8GA1UECAwIVmlyZ2luaWExEjAQ
BgNVBAcMCUFybGluZ3RvbjEjMCEGA1UECgwaSmVmZnJleSBWb2lnaHQsIHZvaWdo
dC5vcmcxGTAXBgNVBAsMEFZvaWdodCBIb3VzZWhvbGQxFTATBgNVBAMMDCoudm9p
Z2h0Lm9yZzEeMBwGCSqGSIb3DQEJARYPamVmZkB2b2lnaHQub3JnMIIBIjANBgkq
hkiG9w0BAQEFAAOCAQ8AMIIBCgKCAQEA4WOEqgLG5bka+8nQ/c1DLrDr84QsVMmI
+32wgqX/3efzozN7QXvkkO7CAJZeONrMv0a9SlEa9snY0hWML6Rc8zpzeCO2zhAd
QP0z2tLKaYZWVWh5n3TYpUD0rRsFMOzNaeIU/tXjk06jK7xT6zyuvVieyf7sO/6W
YzwHtJm581TnBOZNV9wE7sGnWTW1NWKUcgUYTcNzIMDXCzXmcTrKFMHAcJyCaVoS
PAUNfRxPeB7wx3VOhje3Mv7FS9msjyDDV/ZJ4NW4ghHg+aQZSM+eU4ieL+yp6bg5
RaEEEE/X/dMi1lrCGcDOipO3e5/2yY3uFNus3GV5kZLd3oDZ6ZKWIwIDAQABo4HO
MIHLMAkGA1UdEwQCMAAwHQYDVR0OBBYEFL9NEi+/0xOfMM+Tj59+JUTropqfMFMG
A1UdIwRMMEqAFMhWWCOS6Tq4UGapNEwoyBiqaz2RoRykGjAYMRYwFAYDVQQDDA12
b2lnaHQub3JnIENBghQn2ODSz1f4HjgfIQAOjiR+2CZNADATBgNVHSUEDDAKBggr
BgEFBQcDATALBgNVHQ8EBAMCBaAwKAYDVR0RBCEwH4IMKi52b2lnaHQub3JngQ9q
ZWZmQHZvaWdodC5vcmcwDQYJKoZIhvcNAQELBQADggEBAA029vphOZyhFdz0JJ/P
mU+j5MZB7l8FRg5fFjw0K9iOCwbhxWeolk4T+vvUmLoAn63DksGKljiLdDz2LPke
BrES9SIZkvvJZzEJVQ3aLFpiN6E1zY7lVY+GZQMRogfmUlo+oh7Ai/HHK4aTv3Wn
+pBxBvjy+ZIIVzgVBkVDMmkfHq4cEuvN1PVf0xWlM640JQlsNqNx971KW9bNW/a8
Rcw2e7i6lggsK4KMZs1rimvMuVMSoz+Dscg3eZEsuhWxZsMU+NJ4ubUOSTwWNOp7
9HJPbYk+DivOxRLsEllvEhB84NA9TeLBOaz8zD6x3K16fUENLtugFOFnGnV2bbgc
CiU=
-----END CERTIFICATE-----
